; Function Attrs: mustprogress nofree norecurse nosync nounwind willreturn memory(argmem: read) uwtable
define dso_local noundef zeroext i1 @_Z14isAbsolutePathSt17basic_string_viewIcSt11char_traitsIcEE(i64 %0, ptr readonly captures(none) %1) local_unnamed_addr #0 {
  %.not = icmp eq i64 %0, 0
  br i1 %.not, label %6, label %3

3:                                                ; preds = %2
  %4 = load i8, ptr %1, align 1, !tbaa !4
  %5 = icmp eq i8 %4, 47
  br label %6

6:                                                ; preds = %3, %2
  %7 = phi i1 [ false, %2 ], [ %5, %3 ]
  ret i1 %7
}